target datalayout = "e-m:e-p270:32:32-p271:32:32-p272:64:64-i64:64-i128:128-f80:128-n8:16:32:64-S128"
target triple = "x86_64-pc-linux-gnu"

%struct.lv_area_t = type { i32, i32, i32, i32 }
%struct.lv_color_t = type { i8, i8, i8 }
%struct._lv_draw_image_dsc_t = type { %struct.lv_draw_dsc_base_t, ptr, %struct.lv_image_header_t, i32, i32, i32, i32, i32, %struct.lv_point_t, %struct.lv_color_t, i8, i8, i8, ptr, %struct.lv_area_t, i32, ptr }
%struct.lv_draw_dsc_base_t = type { ptr, i32, i32, i32, ptr, i64, ptr }
%struct.lv_image_header_t = type <{ i64, i32 }>
%struct.lv_point_t = type { i32, i32 }
%struct._lv_image_decoder_dsc_t = type { ptr, %struct._lv_image_decoder_args_t, ptr, i32, %struct.lv_fs_file_t, %struct.lv_image_header_t, ptr, ptr, i32, i32, ptr, ptr, ptr, ptr }
%struct._lv_image_decoder_args_t = type { i8, i8, i8, i8, i8 }
%struct.lv_fs_file_t = type { ptr, ptr, ptr }
%struct._lv_draw_image_sup_t = type { %struct.lv_color_t, ptr, i16 }

; Function Attrs: nounwind uwtable
define internal void @img_decode_and_draw(ptr noundef %0, ptr noundef %1, ptr noundef %2, ptr noundef %3, ptr noundef %4, ptr noundef %5, ptr noundef %6) #0 {
  %8 = alloca ptr, align 8
  %9 = alloca ptr, align 8
  %10 = alloca ptr, align 8
  %11 = alloca ptr, align 8
  %12 = alloca ptr, align 8
  %13 = alloca ptr, align 8
  %14 = alloca ptr, align 8
  %15 = alloca %struct._lv_draw_image_sup_t, align 8
  %16 = alloca %struct.lv_area_t, align 4
  %17 = alloca %struct.lv_area_t, align 4
  %18 = alloca i32, align 4
  %19 = alloca %struct.lv_area_t, align 4
  %20 = alloca %struct.lv_area_t, align 4
  store ptr %0, ptr %8, align 8, !tbaa !3
  store ptr %1, ptr %9, align 8, !tbaa !3
  store ptr %2, ptr %10, align 8, !tbaa !3
  store ptr %3, ptr %11, align 8, !tbaa !3
  store ptr %4, ptr %12, align 8, !tbaa !3
  store ptr %5, ptr %13, align 8, !tbaa !3
  store ptr %6, ptr %14, align 8, !tbaa !3
  call void @llvm.lifetime.start.p0(i64 24, ptr %15) #5
  %21 = getelementptr inbounds nuw %struct._lv_draw_image_sup_t, ptr %15, i32 0, i32 0
  %22 = load ptr, ptr %9, align 8, !tbaa !3
  %23 = getelementptr inbounds nuw %struct._lv_draw_image_dsc_t, ptr %22, i32 0, i32 9
  call void @llvm.memcpy.p0.p0.i64(ptr align 8 %21, ptr align 8 %23, i64 3, i1 false), !tbaa.struct !7
  %24 = load ptr, ptr %10, align 8, !tbaa !3
  %25 = getelementptr inbounds nuw %struct._lv_image_decoder_dsc_t, ptr %24, i32 0, i32 7
  %26 = load ptr, ptr %25, align 8, !tbaa !43
  %27 = getelementptr inbounds nuw %struct._lv_draw_image_sup_t, ptr %15, i32 0, i32 1
  store ptr %26, ptr %27, align 8, !tbaa !47
  %28 = load ptr, ptr %10, align 8, !tbaa !3
  %29 = getelementptr inbounds nuw %struct._lv_image_decoder_dsc_t, ptr %28, i32 0, i32 8
  %30 = load i32, ptr %29, align 8, !tbaa !49
  %31 = getelementptr inbounds nuw %struct._lv_draw_image_sup_t, ptr %15, i32 0, i32 2
  %32 = trunc i32 %30 to i16
  %33 = load i16, ptr %31, align 8
  %34 = and i16 %32, 511
  %35 = and i16 %33, -512
  %36 = or i16 %35, %34
  store i16 %36, ptr %31, align 8
  %37 = load ptr, ptr %10, align 8, !tbaa !3
  %38 = getelementptr inbounds nuw %struct._lv_image_decoder_dsc_t, ptr %37, i32 0, i32 6
  %39 = load ptr, ptr %38, align 8, !tbaa !50
  %40 = icmp ne ptr %39, null
  br i1 %40, label %41, label %56

41:                                               ; preds = %7
  %42 = load ptr, ptr %11, align 8, !tbaa !3
  %43 = icmp eq ptr %42, null
  br i1 %43, label %49, label %44

44:                                               ; preds = %41
  %45 = load ptr, ptr %11, align 8, !tbaa !3
  %46 = getelementptr inbounds nuw %struct.lv_area_t, ptr %45, i32 0, i32 0
  %47 = load i32, ptr %46, align 4, !tbaa !29
  %48 = icmp eq i32 %47, -536870911
  br i1 %48, label %49, label %56

49:                                               ; preds = %44, %41
  %50 = load ptr, ptr %14, align 8, !tbaa !3
  %51 = load ptr, ptr %8, align 8, !tbaa !3
  %52 = load ptr, ptr %9, align 8, !tbaa !3
  %53 = load ptr, ptr %10, align 8, !tbaa !3
  %54 = load ptr, ptr %12, align 8, !tbaa !3
  %55 = load ptr, ptr %13, align 8, !tbaa !3
  call void %50(ptr noundef %51, ptr noundef %52, ptr noundef %53, ptr noundef %15, ptr noundef %54, ptr noundef %55)
  br label %105

56:                                               ; preds = %44, %7
  call void @llvm.lifetime.start.p0(i64 16, ptr %16) #5
  %57 = load ptr, ptr %13, align 8, !tbaa !3
  call void @llvm.memcpy.p0.p0.i64(ptr align 4 %16, ptr align 4 %57, i64 16, i1 false), !tbaa.struct !51
  %58 = load ptr, ptr %12, align 8, !tbaa !3
  %59 = getelementptr inbounds nuw %struct.lv_area_t, ptr %58, i32 0, i32 0
  %60 = load i32, ptr %59, align 4, !tbaa !29
  %61 = sub nsw i32 0, %60
  %62 = load ptr, ptr %12, align 8, !tbaa !3
  %63 = getelementptr inbounds nuw %struct.lv_area_t, ptr %62, i32 0, i32 1
  %64 = load i32, ptr %63, align 4, !tbaa !30
  %65 = sub nsw i32 0, %64
  call void @lv_area_move(ptr noundef %16, i32 noundef %61, i32 noundef %65)
  call void @llvm.lifetime.start.p0(i64 16, ptr %17) #5
  %66 = load ptr, ptr %11, align 8, !tbaa !3
  %67 = icmp eq ptr %66, null
  br i1 %67, label %68, label %69

68:                                               ; preds = %56
  store ptr %17, ptr %11, align 8, !tbaa !3
  br label %69

69:                                               ; preds = %68, %56
  %70 = load ptr, ptr %11, align 8, !tbaa !3
  %71 = getelementptr inbounds nuw %struct.lv_area_t, ptr %70, i32 0, i32 0
  store i32 -536870911, ptr %71, align 4, !tbaa !29
  %72 = load ptr, ptr %11, align 8, !tbaa !3
  %73 = getelementptr inbounds nuw %struct.lv_area_t, ptr %72, i32 0, i32 1
  store i32 -536870911, ptr %73, align 4, !tbaa !30
  %74 = load ptr, ptr %11, align 8, !tbaa !3
  %75 = getelementptr inbounds nuw %struct.lv_area_t, ptr %74, i32 0, i32 2
  store i32 -536870911, ptr %75, align 4, !tbaa !37
  %76 = load ptr, ptr %11, align 8, !tbaa !3
  %77 = getelementptr inbounds nuw %struct.lv_area_t, ptr %76, i32 0, i32 3
  store i32 -536870911, ptr %77, align 4, !tbaa !38
  call void @llvm.lifetime.start.p0(i64 4, ptr %18) #5
  store i32 1, ptr %18, align 4, !tbaa !35
  br label %78

78:                                               ; preds = %103, %69
  %79 = load i32, ptr %18, align 4, !tbaa !35
  %80 = icmp eq i32 %79, 1
  br i1 %80, label %81, label %104

81:                                               ; preds = %78
  %82 = load ptr, ptr %10, align 8, !tbaa !3
  %83 = load ptr, ptr %11, align 8, !tbaa !3
  %84 = call i32 @lv_image_decoder_get_area(ptr noundef %82, ptr noundef %16, ptr noundef %83)
  store i32 %84, ptr %18, align 4, !tbaa !35
  call void @llvm.lifetime.start.p0(i64 16, ptr %19) #5
  %85 = load ptr, ptr %11, align 8, !tbaa !3
  call void @llvm.memcpy.p0.p0.i64(ptr align 4 %19, ptr align 4 %85, i64 16, i1 false), !tbaa.struct !51
  %86 = load ptr, ptr %12, align 8, !tbaa !3
  %87 = getelementptr inbounds nuw %struct.lv_area_t, ptr %86, i32 0, i32 0
  %88 = load i32, ptr %87, align 4, !tbaa !29
  %89 = load ptr, ptr %12, align 8, !tbaa !3
  %90 = getelementptr inbounds nuw %struct.lv_area_t, ptr %89, i32 0, i32 1
  %91 = load i32, ptr %90, align 4, !tbaa !30
  call void @lv_area_move(ptr noundef %19, i32 noundef %88, i32 noundef %91)
  %92 = load i32, ptr %18, align 4, !tbaa !35
  %93 = icmp eq i32 %92, 1
  br i1 %93, label %94, label %103

94:                                               ; preds = %81
  call void @llvm.lifetime.start.p0(i64 16, ptr %20) #5
  %95 = load ptr, ptr %13, align 8, !tbaa !3
  %96 = call zeroext i1 @lv_area_intersect(ptr noundef %20, ptr noundef %95, ptr noundef %19)
  br i1 %96, label %97, label %102

97:                                               ; preds = %94
  %98 = load ptr, ptr %14, align 8, !tbaa !3
  %99 = load ptr, ptr %8, align 8, !tbaa !3
  %100 = load ptr, ptr %9, align 8, !tbaa !3
  %101 = load ptr, ptr %10, align 8, !tbaa !3
  call void %98(ptr noundef %99, ptr noundef %100, ptr noundef %101, ptr noundef %15, ptr noundef %19, ptr noundef %20)
  br label %102

102:                                              ; preds = %97, %94
  call void @llvm.lifetime.end.p0(i64 16, ptr %20) #5
  br label %103

103:                                              ; preds = %102, %81
  call void @llvm.lifetime.end.p0(i64 16, ptr %19) #5
  br label %78, !llvm.loop !52

104:                                              ; preds = %78
  call void @llvm.lifetime.end.p0(i64 4, ptr %18) #5
  call void @llvm.lifetime.end.p0(i64 16, ptr %17) #5
  call void @llvm.lifetime.end.p0(i64 16, ptr %16) #5
  br label %105

105:                                              ; preds = %104, %49
  call void @llvm.lifetime.end.p0(i64 24, ptr %15) #5
  ret void
}