; Function Attrs: nounwind uwtable
define internal fastcc void @img_decode_and_draw(ptr noundef %0, ptr noundef %1, ptr noundef nonnull %2, ptr noundef %3, ptr noundef %4, ptr noundef nonnull %5, ptr nocapture noundef nonnull readonly %6) unnamed_addr #0 {
  %8 = alloca %struct._lv_draw_image_sup_t, align 8
  %9 = alloca %struct.lv_area_t, align 4
  %10 = alloca %struct.lv_area_t, align 4
  %11 = alloca %struct.lv_area_t, align 4
  %12 = alloca %struct.lv_area_t, align 4
  call void @llvm.lifetime.start.p0(i64 24, ptr nonnull %8) #6
  %13 = getelementptr inbounds nuw i8, ptr %1, i64 96
  call void @llvm.memcpy.p0.p0.i64(ptr noundef nonnull align 8 dereferenceable(3) %8, ptr noundef nonnull align 8 dereferenceable(3) %13, i64 3, i1 false), !tbaa.struct !38
  %14 = getelementptr inbounds nuw i8, ptr %2, i64 80
  %15 = load ptr, ptr %14, align 8, !tbaa !39
  %16 = getelementptr inbounds nuw i8, ptr %8, i64 8
  store ptr %15, ptr %16, align 8, !tbaa !43
  %17 = getelementptr inbounds nuw i8, ptr %2, i64 88
  %18 = load i32, ptr %17, align 8, !tbaa !45
  %19 = getelementptr inbounds nuw i8, ptr %8, i64 16
  %20 = trunc i32 %18 to i16
  %21 = and i16 %20, 511
  store i16 %21, ptr %19, align 8
  %22 = getelementptr inbounds nuw i8, ptr %2, i64 72
  %23 = load ptr, ptr %22, align 8, !tbaa !46
  %.not = icmp eq ptr %23, null
  br i1 %.not, label %30, label %24

24:                                               ; preds = %7
  %25 = icmp eq ptr %3, null
  br i1 %25, label %29, label %26

26:                                               ; preds = %24
  %27 = load i32, ptr %3, align 4, !tbaa !25
  %28 = icmp eq i32 %27, -536870911
  br i1 %28, label %29, label %30

29:                                               ; preds = %26, %24
  call void %6(ptr noundef %0, ptr noundef nonnull %1, ptr noundef nonnull %2, ptr noundef nonnull %8, ptr noundef %4, ptr noundef nonnull %5) #6
  br label %48

30:                                               ; preds = %26, %7
  call void @llvm.lifetime.start.p0(i64 16, ptr nonnull %9) #6
  call void @llvm.memcpy.p0.p0.i64(ptr noundef nonnull align 4 dereferenceable(16) %9, ptr noundef nonnull align 4 dereferenceable(16) %5, i64 16, i1 false), !tbaa.struct !47
  %31 = load i32, ptr %4, align 4, !tbaa !25
  %32 = sub nsw i32 0, %31
  %33 = getelementptr inbounds nuw i8, ptr %4, i64 4
  %34 = load i32, ptr %33, align 4, !tbaa !26
  %35 = sub nsw i32 0, %34
  call void @lv_area_move(ptr noundef nonnull %9, i32 noundef %32, i32 noundef %35) #6
  call void @llvm.lifetime.start.p0(i64 16, ptr nonnull %10) #6
  %36 = icmp eq ptr %3, null
  %spec.store.select = select i1 %36, ptr %10, ptr %3
  store i32 -536870911, ptr %spec.store.select, align 4, !tbaa !25
  %spec.store.select.sroa.sel.v.sroa.sel.v.sroa.sel.v = select i1 %36, ptr %10, ptr %3
  %spec.store.select.sroa.sel.v.sroa.sel.v.sroa.sel = getelementptr inbounds nuw i8, ptr %spec.store.select.sroa.sel.v.sroa.sel.v.sroa.sel.v, i64 4
  store i32 -536870911, ptr %spec.store.select.sroa.sel.v.sroa.sel.v.sroa.sel, align 4, !tbaa !26
  %spec.store.select.sroa.sel35.v.sroa.sel.v.sroa.sel.v = select i1 %36, ptr %10, ptr %3
  %spec.store.select.sroa.sel35.v.sroa.sel.v.sroa.sel = getelementptr inbounds nuw i8, ptr %spec.store.select.sroa.sel35.v.sroa.sel.v.sroa.sel.v, i64 8
  store i32 -536870911, ptr %spec.store.select.sroa.sel35.v.sroa.sel.v.sroa.sel, align 4, !tbaa !34
  %spec.store.select.sroa.sel38.v.sroa.sel.v.sroa.sel.v = select i1 %36, ptr %10, ptr %3
  %spec.store.select.sroa.sel38.v.sroa.sel.v.sroa.sel = getelementptr inbounds nuw i8, ptr %spec.store.select.sroa.sel38.v.sroa.sel.v.sroa.sel.v, i64 12
  store i32 -536870911, ptr %spec.store.select.sroa.sel38.v.sroa.sel.v.sroa.sel, align 4, !tbaa !35
  %37 = call i32 @lv_image_decoder_get_area(ptr noundef nonnull %2, ptr noundef nonnull %9, ptr noundef nonnull %spec.store.select) #6
  call void @llvm.lifetime.start.p0(i64 16, ptr nonnull %11) #6
  call void @llvm.memcpy.p0.p0.i64(ptr noundef nonnull align 4 dereferenceable(16) %11, ptr noundef nonnull align 4 dereferenceable(16) %spec.store.select, i64 16, i1 false), !tbaa.struct !47
  %38 = load i32, ptr %4, align 4, !tbaa !25
  %39 = load i32, ptr %33, align 4, !tbaa !26
  call void @lv_area_move(ptr noundef nonnull %11, i32 noundef %38, i32 noundef %39) #6
  %40 = icmp eq i32 %37, 1
  br i1 %40, label %.lr.ph, label %._crit_edge

.lr.ph:                                           ; preds = %30, %43
  call void @llvm.lifetime.start.p0(i64 16, ptr nonnull %12) #6
  %41 = call zeroext i1 @lv_area_intersect(ptr noundef nonnull %12, ptr noundef nonnull %5, ptr noundef nonnull %11) #6
  br i1 %41, label %42, label %43

42:                                               ; preds = %.lr.ph
  call void %6(ptr noundef %0, ptr noundef %1, ptr noundef nonnull %2, ptr noundef nonnull %8, ptr noundef nonnull %11, ptr noundef nonnull %12) #6
  br label %43

43:                                               ; preds = %.lr.ph, %42
  call void @llvm.lifetime.end.p0(i64 16, ptr nonnull %12) #6
  call void @llvm.lifetime.end.p0(i64 16, ptr nonnull %11) #6
  %44 = call i32 @lv_image_decoder_get_area(ptr noundef nonnull %2, ptr noundef nonnull %9, ptr noundef nonnull %spec.store.select) #6
  call void @llvm.lifetime.start.p0(i64 16, ptr nonnull %11) #6
  call void @llvm.memcpy.p0.p0.i64(ptr noundef nonnull align 4 dereferenceable(16) %11, ptr noundef nonnull align 4 dereferenceable(16) %spec.store.select, i64 16, i1 false), !tbaa.struct !47
  %45 = load i32, ptr %4, align 4, !tbaa !25
  %46 = load i32, ptr %33, align 4, !tbaa !26
  call void @lv_area_move(ptr noundef nonnull %11, i32 noundef %45, i32 noundef %46) #6
  %47 = icmp eq i32 %44, 1
  br i1 %47, label %.lr.ph, label %._crit_edge, !llvm.loop !49

._crit_edge:                                      ; preds = %43, %30
  call void @llvm.lifetime.end.p0(i64 16, ptr nonnull %11) #6
  call void @llvm.lifetime.end.p0(i64 16, ptr nonnull %10) #6
  call void @llvm.lifetime.end.p0(i64 16, ptr nonnull %9) #6
  br label %48

48:                                               ; preds = %._crit_edge, %29
  call void @llvm.lifetime.end.p0(i64 24, ptr nonnull %8) #6
  ret void
}